; Function Attrs: nounwind uwtable
define internal fastcc i32 @ftp_send_command(ptr noundef %0, ptr noundef %1, ptr noundef readonly captures(address_is_null) %2, ptr noundef %3) unnamed_addr #0 {
  %.not = icmp eq ptr %3, null
  br i1 %.not, label %6, label %5

5:                                                ; preds = %4
  store ptr null, ptr %3, align 8, !tbaa !20
  br label %6

6:                                                ; preds = %5, %4
  %7 = getelementptr inbounds nuw i8, ptr %0, i64 8
  %8 = load ptr, ptr %7, align 8, !tbaa !15
  %.not16 = icmp eq ptr %8, null
  br i1 %.not16, label %18, label %9

9:                                                ; preds = %6
  %10 = tail call i64 @strlen(ptr noundef nonnull dereferenceable(1) %1) #11
  %11 = trunc i64 %10 to i32
  %12 = tail call i32 @ffurl_write2(ptr noundef nonnull %8, ptr noundef nonnull %1, i32 noundef %11) #10
  %13 = icmp slt i32 %12, 0
  br i1 %13, label %18, label %14

14:                                               ; preds = %9
  %.not17 = icmp eq i32 %12, 0
  br i1 %.not17, label %18, label %15

15:                                               ; preds = %14
  %.not18 = icmp eq ptr %2, null
  br i1 %.not18, label %18, label %16

16:                                               ; preds = %15
  %17 = tail call fastcc i32 @ftp_status(ptr noundef nonnull %0, ptr noundef %3, ptr noundef nonnull %2)
  br label %18

18:                                               ; preds = %15, %14, %9, %6, %16
  %.0 = phi i32 [ %17, %16 ], [ -5, %6 ], [ %12, %9 ], [ -1, %14 ], [ 0, %15 ]
  ret i32 %.0
}